; ModuleID = '45/1644.c'
source_filename = "45/1644.c"
target datalayout = "e-m:e-p270:32:32-p271:32:32-p272:64:64-i64:64-f80:128-n8:16:32:64-S128"
target triple = "x86_64-pc-linux-gnu"

@.str = private unnamed_addr constant [5 x i8] c"%s%s\00", align 1
@.str.1 = private unnamed_addr constant [3 x i8] c"%d\00", align 1

; Function Attrs: noinline nounwind uwtable
define dso_local void @main() #0 {
  %1 = alloca [50 x i8], align 16
  %2 = alloca [50 x i8], align 16
  %3 = alloca i32, align 4
  %4 = alloca i32, align 4
  %5 = alloca i32, align 4
  %6 = alloca i32, align 4
  %7 = alloca i32, align 4
  %8 = call i32 (i8*, ...) @__isoc99_scanf(i8* getelementptr inbounds ([5 x i8], [5 x i8]* @.str, i64 0, i64 0), [50 x i8]* %1, [50 x i8]* %2)
  store i32 1, i32* %3, align 4
  br label %9

9:                                                ; preds = %19, %0
  %10 = load i32, i32* %3, align 4
  %11 = sext i32 %10 to i64
  %12 = getelementptr inbounds [50 x i8], [50 x i8]* %1, i64 0, i64 %11
  %13 = load i8, i8* %12, align 1
  %14 = sext i8 %13 to i32
  %15 = icmp eq i32 %14, 0
  br i1 %15, label %16, label %18

16:                                               ; preds = %9
  %17 = load i32, i32* %3, align 4
  store i32 %17, i32* %5, align 4
  br label %22

18:                                               ; preds = %9
  br label %19

19:                                               ; preds = %18
  %20 = load i32, i32* %3, align 4
  %21 = add nsw i32 %20, 1
  store i32 %21, i32* %3, align 4
  br label %9

22:                                               ; preds = %16
  store i32 1, i32* %3, align 4
  br label %23

23:                                               ; preds = %33, %22
  %24 = load i32, i32* %3, align 4
  %25 = sext i32 %24 to i64
  %26 = getelementptr inbounds [50 x i8], [50 x i8]* %2, i64 0, i64 %25
  %27 = load i8, i8* %26, align 1
  %28 = sext i8 %27 to i32
  %29 = icmp eq i32 %28, 0
  br i1 %29, label %30, label %32

30:                                               ; preds = %23
  %31 = load i32, i32* %3, align 4
  store i32 %31, i32* %6, align 4
  br label %36

32:                                               ; preds = %23
  br label %33

33:                                               ; preds = %32
  %34 = load i32, i32* %3, align 4
  %35 = add nsw i32 %34, 1
  store i32 %35, i32* %3, align 4
  br label %23

36:                                               ; preds = %30
  store i32 0, i32* %3, align 4
  br label %37

37:                                               ; preds = %87, %36
  %38 = load i32, i32* %3, align 4
  %39 = load i32, i32* %6, align 4
  %40 = icmp slt i32 %38, %39
  br i1 %40, label %41, label %90

41:                                               ; preds = %37
  store i32 0, i32* %7, align 4
  %42 = load i32, i32* %3, align 4
  %43 = sext i32 %42 to i64
  %44 = getelementptr inbounds [50 x i8], [50 x i8]* %2, i64 0, i64 %43
  %45 = load i8, i8* %44, align 1
  %46 = sext i8 %45 to i32
  %47 = getelementptr inbounds [50 x i8], [50 x i8]* %1, i64 0, i64 0
  %48 = load i8, i8* %47, align 16
  %49 = sext i8 %48 to i32
  %50 = icmp eq i32 %46, %49
  br i1 %50, label %51, label %86

51:                                               ; preds = %41
  store i32 0, i32* %4, align 4
  br label %52

52:                                               ; preds = %75, %51
  %53 = load i32, i32* %4, align 4
  %54 = load i32, i32* %5, align 4
  %55 = icmp slt i32 %53, %54
  br i1 %55, label %56, label %78

56:                                               ; preds = %52
  %57 = load i32, i32* %3, align 4
  %58 = load i32, i32* %4, align 4
  %59 = add nsw i32 %57, %58
  %60 = sext i32 %59 to i64
  %61 = getelementptr inbounds [50 x i8], [50 x i8]* %2, i64 0, i64 %60
  %62 = load i8, i8* %61, align 1
  %63 = sext i8 %62 to i32
  %64 = load i32, i32* %4, align 4
  %65 = sext i32 %64 to i64
  %66 = getelementptr inbounds [50 x i8], [50 x i8]* %1, i64 0, i64 %65
  %67 = load i8, i8* %66, align 1
  %68 = sext i8 %67 to i32
  %69 = icmp eq i32 %63, %68
  br i1 %69, label %70, label %73

70:                                               ; preds = %56
  %71 = load i32, i32* %7, align 4
  %72 = add nsw i32 %71, 1
  store i32 %72, i32* %7, align 4
  br label %74

73:                                               ; preds = %56
  br label %78

74:                                               ; preds = %70
  br label %75

75:                                               ; preds = %74
  %76 = load i32, i32* %4, align 4
  %77 = add nsw i32 %76, 1
  store i32 %77, i32* %4, align 4
  br label %52

78:                                               ; preds = %73, %52
  %79 = load i32, i32* %7, align 4
  %80 = load i32, i32* %5, align 4
  %81 = icmp eq i32 %79, %80
  br i1 %81, label %82, label %85

82:                                               ; preds = %78
  %83 = load i32, i32* %3, align 4
  %84 = call i32 (i8*, ...) @printf(i8* getelementptr inbounds ([3 x i8], [3 x i8]* @.str.1, i64 0, i64 0), i32 %83)
  br label %90

85:                                               ; preds = %78
  br label %86

86:                                               ; preds = %85, %41
  br label %87

87:                                               ; preds = %86
  %88 = load i32, i32* %3, align 4
  %89 = add nsw i32 %88, 1
  store i32 %89, i32* %3, align 4
  br label %37

90:                                               ; preds = %82, %37
  ret void
}

declare dso_local i32 @__isoc99_scanf(i8*, ...) #1

declare dso_local i32 @printf(i8*, ...) #1


!llvm.module.flags = !{!0}
!llvm.ident = !{!1}

!0 = !{i32 1, !"wchar_size", i32 4}
!1 = !{!"clang version 10.0.0-4ubuntu1 "}
